target datalayout = "e-m:e-p270:32:32-p271:32:32-p272:64:64-i64:64-i128:128-f80:128-n8:16:32:64-S128"
target triple = "x86_64-pc-linux-gnu"

%struct.pointf_s = type { double, double }
%struct.spring_electrical_control_struct = type { double, double, i32, i32, i32, double, i32, i8, i32, i32, i8, i32, double, double, i32 }
%struct.Agobj_s = type { %struct.Agtag_s, ptr }
%struct.Agtag_s = type { i32, i64 }
%struct.Agrec_s = type { ptr, ptr }
%struct.boxf = type { %struct.pointf_s, %struct.pointf_s }
%struct.Agnodeinfo_t = type { %struct.Agrec_s, ptr, ptr, %struct.pointf_s, double, double, %struct.boxf, double, double, double, double, double, ptr, ptr, ptr, i8, i8, i8, i8, i32, i32, i32, ptr, double, i8, i8, ptr, ptr, i8, i64, i8, i8, i8, ptr, ptr, %struct.elist, %struct.elist, %struct.elist, %struct.elist, %struct.elist, ptr, i32, ptr, i32, i32, double, %struct.elist, %struct.elist, %struct.elist, %struct.elist, ptr, i32, i32, i32, [1 x double] }
%struct.elist = type { ptr, i64 }

@Ndim = external global i16, align 2
@.str.27 = private unnamed_addr constant [4 x i8] c"pos\00", align 1
@stderr = external global ptr, align 8
@.str.28 = private unnamed_addr constant [58 x i8] c"integer overflow when trying to allocate %zu * %zu bytes\0A\00", align 1
@.str.29 = private unnamed_addr constant [49 x i8] c"out of memory when trying to allocate %zu bytes\0A\00", align 1

; Function Attrs: inlinehint nounwind uwtable
define internal ptr @gv_calloc(i64 noundef %0, i64 noundef %1) #5 {
  %3 = alloca i64, align 8
  %4 = alloca i64, align 8
  %5 = alloca ptr, align 8
  store i64 %0, ptr %3, align 8, !tbaa !39
  store i64 %1, ptr %4, align 8, !tbaa !39
  %6 = load i64, ptr %3, align 8, !tbaa !39
  %7 = icmp ugt i64 %6, 0
  br i1 %7, label %8, label %18

8:                                                ; preds = %2
  %9 = load i64, ptr %3, align 8, !tbaa !39
  %10 = udiv i64 -1, %9
  %11 = load i64, ptr %4, align 8, !tbaa !39
  %12 = icmp ult i64 %10, %11
  br i1 %12, label %13, label %18

13:                                               ; preds = %8
  %14 = load ptr, ptr @stderr, align 8, !tbaa !103
  %15 = load i64, ptr %3, align 8, !tbaa !39
  %16 = load i64, ptr %4, align 8, !tbaa !39
  %17 = call i32 (ptr, ptr, ...) @fprintf(ptr noundef %14, ptr noundef @.str.28, i64 noundef %15, i64 noundef %16) #11
  call void @graphviz_exit(i32 noundef 1) #13
  unreachable

18:                                               ; preds = %8, %2
  call void @llvm.lifetime.start.p0(i64 8, ptr %5) #11
  %19 = load i64, ptr %3, align 8, !tbaa !39
  %20 = load i64, ptr %4, align 8, !tbaa !39
  %21 = call noalias ptr @calloc(i64 noundef %19, i64 noundef %20) #14
  store ptr %21, ptr %5, align 8, !tbaa !105
  %22 = load i64, ptr %3, align 8, !tbaa !39
  %23 = icmp ugt i64 %22, 0
  br i1 %23, label %24, label %36

24:                                               ; preds = %18
  %25 = load i64, ptr %4, align 8, !tbaa !39
  %26 = icmp ugt i64 %25, 0
  br i1 %26, label %27, label %36

27:                                               ; preds = %24
  %28 = load ptr, ptr %5, align 8, !tbaa !105
  %29 = icmp eq ptr %28, null
  br i1 %29, label %30, label %36

30:                                               ; preds = %27
  %31 = load ptr, ptr @stderr, align 8, !tbaa !103
  %32 = load i64, ptr %3, align 8, !tbaa !39
  %33 = load i64, ptr %4, align 8, !tbaa !39
  %34 = mul i64 %32, %33
  %35 = call i32 (ptr, ptr, ...) @fprintf(ptr noundef %31, ptr noundef @.str.29, i64 noundef %34) #11
  call void @graphviz_exit(i32 noundef 1) #13
  unreachable

36:                                               ; preds = %27, %24, %18
  %37 = load ptr, ptr %5, align 8, !tbaa !105
  call void @llvm.lifetime.end.p0(i64 8, ptr %5) #11
  ret ptr %37
}

; Function Attrs: nounwind uwtable
define internal ptr @getPos(ptr noundef %0) #0 {
  %2 = alloca ptr, align 8
  %3 = alloca ptr, align 8
  %4 = alloca ptr, align 8
  %5 = alloca ptr, align 8
  %6 = alloca i32, align 4
  %7 = alloca i32, align 4
  %8 = alloca i32, align 4
  store ptr %0, ptr %3, align 8, !tbaa !3
  call void @llvm.lifetime.start.p0(i64 8, ptr %4) #11
  call void @llvm.lifetime.start.p0(i64 8, ptr %5) #11
  %9 = load i16, ptr @Ndim, align 2, !tbaa !8
  %10 = zext i16 %9 to i32
  %11 = load ptr, ptr %3, align 8, !tbaa !3
  %12 = call i32 @agnnodes(ptr noundef %11)
  %13 = mul nsw i32 %10, %12
  %14 = sext i32 %13 to i64
  %15 = call ptr @gv_calloc(i64 noundef %14, i64 noundef 8)
  store ptr %15, ptr %5, align 8, !tbaa !79
  call void @llvm.lifetime.start.p0(i64 4, ptr %6) #11
  call void @llvm.lifetime.start.p0(i64 4, ptr %7) #11
  %16 = load ptr, ptr %3, align 8, !tbaa !3
  %17 = call ptr @agattr(ptr noundef %16, i32 noundef 1, ptr noundef @.str.27, ptr noundef null)
  %18 = icmp eq ptr %17, null
  br i1 %18, label %19, label %21

19:                                               ; preds = %1
  %20 = load ptr, ptr %5, align 8, !tbaa !79
  store ptr %20, ptr %2, align 8
  store i32 1, ptr %8, align 4
  br label %76

21:                                               ; preds = %1
  %22 = load ptr, ptr %3, align 8, !tbaa !3
  %23 = call ptr @agfstnode(ptr noundef %22)
  store ptr %23, ptr %4, align 8, !tbaa !81
  br label %24

24:                                               ; preds = %70, %21
  %25 = load ptr, ptr %4, align 8, !tbaa !81
  %26 = icmp ne ptr %25, null
  br i1 %26, label %27, label %74

27:                                               ; preds = %24
  %28 = load ptr, ptr %4, align 8, !tbaa !81
  %29 = getelementptr inbounds nuw %struct.Agobj_s, ptr %28, i32 0, i32 1
  %30 = load ptr, ptr %29, align 8, !tbaa !49
  %31 = getelementptr inbounds nuw %struct.Agnodeinfo_t, ptr %30, i32 0, i32 19
  %32 = load i32, ptr %31, align 4, !tbaa !82
  store i32 %32, ptr %7, align 4, !tbaa !10
  %33 = load ptr, ptr %4, align 8, !tbaa !81
  %34 = getelementptr inbounds nuw %struct.Agobj_s, ptr %33, i32 0, i32 1
  %35 = load ptr, ptr %34, align 8, !tbaa !49
  %36 = getelementptr inbounds nuw %struct.Agnodeinfo_t, ptr %35, i32 0, i32 18
  %37 = load i8, ptr %36, align 1, !tbaa !100
  %38 = zext i8 %37 to i32
  %39 = icmp sgt i32 %38, 0
  br i1 %39, label %40, label %69

40:                                               ; preds = %27
  store i32 0, ptr %6, align 4, !tbaa !10
  br label %41

41:                                               ; preds = %65, %40
  %42 = load i32, ptr %6, align 4, !tbaa !10
  %43 = load i16, ptr @Ndim, align 2, !tbaa !8
  %44 = zext i16 %43 to i32
  %45 = icmp slt i32 %42, %44
  br i1 %45, label %46, label %68

46:                                               ; preds = %41
  %47 = load ptr, ptr %4, align 8, !tbaa !81
  %48 = getelementptr inbounds nuw %struct.Agobj_s, ptr %47, i32 0, i32 1
  %49 = load ptr, ptr %48, align 8, !tbaa !49
  %50 = getelementptr inbounds nuw %struct.Agnodeinfo_t, ptr %49, i32 0, i32 22
  %51 = load ptr, ptr %50, align 8, !tbaa !88
  %52 = load i32, ptr %6, align 4, !tbaa !10
  %53 = sext i32 %52 to i64
  %54 = getelementptr inbounds double, ptr %51, i64 %53
  %55 = load double, ptr %54, align 8, !tbaa !28
  %56 = load ptr, ptr %5, align 8, !tbaa !79
  %57 = load i32, ptr %7, align 4, !tbaa !10
  %58 = load i16, ptr @Ndim, align 2, !tbaa !8
  %59 = zext i16 %58 to i32
  %60 = mul nsw i32 %57, %59
  %61 = load i32, ptr %6, align 4, !tbaa !10
  %62 = add nsw i32 %60, %61
  %63 = sext i32 %62 to i64
  %64 = getelementptr inbounds double, ptr %56, i64 %63
  store double %55, ptr %64, align 8, !tbaa !28
  br label %65

65:                                               ; preds = %46
  %66 = load i32, ptr %6, align 4, !tbaa !10
  %67 = add nsw i32 %66, 1
  store i32 %67, ptr %6, align 4, !tbaa !10
  br label %41, !llvm.loop !101

68:                                               ; preds = %41
  br label %69

69:                                               ; preds = %68, %27
  br label %70

70:                                               ; preds = %69
  %71 = load ptr, ptr %3, align 8, !tbaa !3
  %72 = load ptr, ptr %4, align 8, !tbaa !81
  %73 = call ptr @agnxtnode(ptr noundef %71, ptr noundef %72)
  store ptr %73, ptr %4, align 8, !tbaa !81
  br label %24, !llvm.loop !102

74:                                               ; preds = %24
  %75 = load ptr, ptr %5, align 8, !tbaa !79
  store ptr %75, ptr %2, align 8
  store i32 1, ptr %8, align 4
  br label %76

76:                                               ; preds = %74, %19
  call void @llvm.lifetime.end.p0(i64 4, ptr %7) #11
  call void @llvm.lifetime.end.p0(i64 4, ptr %6) #11
  call void @llvm.lifetime.end.p0(i64 8, ptr %5) #11
  call void @llvm.lifetime.end.p0(i64 8, ptr %4) #11
  %77 = load ptr, ptr %2, align 8
  ret ptr %77
}

; Function Attrs: nounwind uwtable
define internal void @sfdpLayout(ptr noundef %0, ptr noundef %1, double %2, double %3) #0 {
  %5 = alloca %struct.pointf_s, align 8
  %6 = alloca ptr, align 8
  %7 = alloca ptr, align 8
  %8 = alloca ptr, align 8
  %9 = alloca ptr, align 8
  %10 = alloca ptr, align 8
  %11 = alloca i32, align 4
  %12 = alloca i32, align 4
  %13 = alloca i32, align 4
  %14 = alloca ptr, align 8
  %15 = alloca ptr, align 8
  %16 = alloca ptr, align 8
  %17 = getelementptr inbounds nuw { double, double }, ptr %5, i32 0, i32 0
  store double %2, ptr %17, align 8
  %18 = getelementptr inbounds nuw { double, double }, ptr %5, i32 0, i32 1
  store double %3, ptr %18, align 8
  store ptr %0, ptr %6, align 8, !tbaa !3
  store ptr %1, ptr %7, align 8, !tbaa !12
  call void @llvm.lifetime.start.p0(i64 8, ptr %8) #11
  call void @llvm.lifetime.start.p0(i64 8, ptr %9) #11
  call void @llvm.lifetime.start.p0(i64 8, ptr %10) #11
  call void @llvm.lifetime.start.p0(i64 4, ptr %11) #11
  call void @llvm.lifetime.start.p0(i64 4, ptr %12) #11
  call void @llvm.lifetime.start.p0(i64 4, ptr %13) #11
  store i32 0, ptr %13, align 4, !tbaa !10
  call void @llvm.lifetime.start.p0(i64 8, ptr %14) #11
  store ptr null, ptr %14, align 8, !tbaa !76
  call void @llvm.lifetime.start.p0(i64 8, ptr %15) #11
  %19 = load ptr, ptr %6, align 8, !tbaa !3
  %20 = call ptr @makeMatrix(ptr noundef %19)
  store ptr %20, ptr %15, align 8, !tbaa !77
  %21 = load ptr, ptr %7, align 8, !tbaa !12
  %22 = getelementptr inbounds nuw %struct.spring_electrical_control_struct, ptr %21, i32 0, i32 9
  %23 = load i32, ptr %22, align 4, !tbaa !22
  %24 = icmp sge i32 %23, 0
  br i1 %24, label %25, label %45

25:                                               ; preds = %4
  %26 = load ptr, ptr %7, align 8, !tbaa !12
  %27 = getelementptr inbounds nuw %struct.spring_electrical_control_struct, ptr %26, i32 0, i32 14
  %28 = load i32, ptr %27, align 8, !tbaa !75
  %29 = icmp sgt i32 %28, 0
  br i1 %29, label %30, label %37

30:                                               ; preds = %25
  %31 = load ptr, ptr %6, align 8, !tbaa !3
  %32 = getelementptr inbounds nuw { double, double }, ptr %5, i32 0, i32 0
  %33 = load double, ptr %32, align 8
  %34 = getelementptr inbounds nuw { double, double }, ptr %5, i32 0, i32 1
  %35 = load double, ptr %34, align 8
  %36 = call ptr @getSizes(ptr noundef %31, double %33, double %35, ptr noundef %13, ptr noundef %14)
  store ptr %36, ptr %8, align 8, !tbaa !79
  br label %44

37:                                               ; preds = %25
  %38 = load ptr, ptr %6, align 8, !tbaa !3
  %39 = getelementptr inbounds nuw { double, double }, ptr %5, i32 0, i32 0
  %40 = load double, ptr %39, align 8
  %41 = getelementptr inbounds nuw { double, double }, ptr %5, i32 0, i32 1
  %42 = load double, ptr %41, align 8
  %43 = call ptr @getSizes(ptr noundef %38, double %40, double %42, ptr noundef null, ptr noundef null)
  store ptr %43, ptr %8, align 8, !tbaa !79
  br label %44

44:                                               ; preds = %37, %30
  br label %46

45:                                               ; preds = %4
  store ptr null, ptr %8, align 8, !tbaa !79
  br label %46

46:                                               ; preds = %45, %44
  %47 = load ptr, ptr %6, align 8, !tbaa !3
  %48 = call ptr @getPos(ptr noundef %47)
  store ptr %48, ptr %9, align 8, !tbaa !79
  %49 = load i16, ptr @Ndim, align 2, !tbaa !8
  %50 = zext i16 %49 to i32
  %51 = load ptr, ptr %15, align 8, !tbaa !77
  %52 = load ptr, ptr %7, align 8, !tbaa !12
  %53 = load ptr, ptr %8, align 8, !tbaa !79
  %54 = load ptr, ptr %9, align 8, !tbaa !79
  %55 = load i32, ptr %13, align 4, !tbaa !10
  %56 = load ptr, ptr %14, align 8, !tbaa !76
  call void @multilevel_spring_electrical_embedding(i32 noundef %50, ptr noundef %51, ptr noundef %52, ptr noundef %53, ptr noundef %54, i32 noundef %55, ptr noundef %56, ptr noundef %11)
  %57 = load ptr, ptr %6, align 8, !tbaa !3
  %58 = call ptr @agfstnode(ptr noundef %57)
  store ptr %58, ptr %10, align 8, !tbaa !81
  br label %59

59:                                               ; preds = %97, %46
  %60 = load ptr, ptr %10, align 8, !tbaa !81
  %61 = icmp ne ptr %60, null
  br i1 %61, label %62, label %101

62:                                               ; preds = %59
  call void @llvm.lifetime.start.p0(i64 8, ptr %16) #11
  %63 = load ptr, ptr %9, align 8, !tbaa !79
  %64 = load i16, ptr @Ndim, align 2, !tbaa !8
  %65 = zext i16 %64 to i32
  %66 = load ptr, ptr %10, align 8, !tbaa !81
  %67 = getelementptr inbounds nuw %struct.Agobj_s, ptr %66, i32 0, i32 1
  %68 = load ptr, ptr %67, align 8, !tbaa !49
  %69 = getelementptr inbounds nuw %struct.Agnodeinfo_t, ptr %68, i32 0, i32 19
  %70 = load i32, ptr %69, align 4, !tbaa !82
  %71 = mul nsw i32 %65, %70
  %72 = sext i32 %71 to i64
  %73 = getelementptr inbounds double, ptr %63, i64 %72
  store ptr %73, ptr %16, align 8, !tbaa !79
  store i32 0, ptr %12, align 4, !tbaa !10
  br label %74

74:                                               ; preds = %93, %62
  %75 = load i32, ptr %12, align 4, !tbaa !10
  %76 = load i16, ptr @Ndim, align 2, !tbaa !8
  %77 = zext i16 %76 to i32
  %78 = icmp slt i32 %75, %77
  br i1 %78, label %79, label %96

79:                                               ; preds = %74
  %80 = load ptr, ptr %16, align 8, !tbaa !79
  %81 = load i32, ptr %12, align 4, !tbaa !10
  %82 = sext i32 %81 to i64
  %83 = getelementptr inbounds double, ptr %80, i64 %82
  %84 = load double, ptr %83, align 8, !tbaa !28
  %85 = load ptr, ptr %10, align 8, !tbaa !81
  %86 = getelementptr inbounds nuw %struct.Agobj_s, ptr %85, i32 0, i32 1
  %87 = load ptr, ptr %86, align 8, !tbaa !49
  %88 = getelementptr inbounds nuw %struct.Agnodeinfo_t, ptr %87, i32 0, i32 22
  %89 = load ptr, ptr %88, align 8, !tbaa !88
  %90 = load i32, ptr %12, align 4, !tbaa !10
  %91 = sext i32 %90 to i64
  %92 = getelementptr inbounds double, ptr %89, i64 %91
  store double %84, ptr %92, align 8, !tbaa !28
  br label %93

93:                                               ; preds = %79
  %94 = load i32, ptr %12, align 4, !tbaa !10
  %95 = add nsw i32 %94, 1
  store i32 %95, ptr %12, align 4, !tbaa !10
  br label %74, !llvm.loop !89

96:                                               ; preds = %74
  call void @llvm.lifetime.end.p0(i64 8, ptr %16) #11
  br label %97

97:                                               ; preds = %96
  %98 = load ptr, ptr %6, align 8, !tbaa !3
  %99 = load ptr, ptr %10, align 8, !tbaa !81
  %100 = call ptr @agnxtnode(ptr noundef %98, ptr noundef %99)
  store ptr %100, ptr %10, align 8, !tbaa !81
  br label %59, !llvm.loop !90

101:                                              ; preds = %59
  %102 = load ptr, ptr %8, align 8, !tbaa !79
  call void @free(ptr noundef %102) #11
  %103 = load ptr, ptr %9, align 8, !tbaa !79
  call void @free(ptr noundef %103) #11
  %104 = load ptr, ptr %15, align 8, !tbaa !77
  call void @SparseMatrix_delete(ptr noundef %104)
  %105 = load ptr, ptr %14, align 8, !tbaa !76
  call void @free(ptr noundef %105) #11
  call void @llvm.lifetime.end.p0(i64 8, ptr %15) #11
  call void @llvm.lifetime.end.p0(i64 8, ptr %14) #11
  call void @llvm.lifetime.end.p0(i64 4, ptr %13) #11
  call void @llvm.lifetime.end.p0(i64 4, ptr %12) #11
  call void @llvm.lifetime.end.p0(i64 4, ptr %11) #11
  call void @llvm.lifetime.end.p0(i64 8, ptr %10) #11
  call void @llvm.lifetime.end.p0(i64 8, ptr %9) #11
  call void @llvm.lifetime.end.p0(i64 8, ptr %8) #11
  ret void
}