; Function Attrs: nounwind uwtable
define internal fastcc void @sfdpLayout(ptr noundef %0, ptr noundef %1, double %2, double %3) unnamed_addr #0 {
  %5 = alloca i32, align 4
  %6 = alloca i32, align 4
  %7 = alloca ptr, align 8
  call void @llvm.lifetime.start.p0(i64 4, ptr nonnull %5) #12
  call void @llvm.lifetime.start.p0(i64 4, ptr nonnull %6) #12
  store i32 0, ptr %6, align 4, !tbaa !66
  call void @llvm.lifetime.start.p0(i64 8, ptr nonnull %7) #12
  store ptr null, ptr %7, align 8, !tbaa !67
  %8 = tail call ptr @makeMatrix(ptr noundef %0) #12
  %9 = getelementptr inbounds nuw i8, ptr %1, i64 52
  %10 = load i32, ptr %9, align 4, !tbaa !53
  %11 = icmp sgt i32 %10, -1
  br i1 %11, label %12, label %20

12:                                               ; preds = %4
  %13 = getelementptr inbounds nuw i8, ptr %1, i64 80
  %14 = load i32, ptr %13, align 8, !tbaa !49
  %15 = icmp sgt i32 %14, 0
  br i1 %15, label %16, label %18

16:                                               ; preds = %12
  %17 = call ptr @getSizes(ptr noundef %0, double %2, double %3, ptr noundef nonnull %6, ptr noundef nonnull %7) #12
  br label %20

18:                                               ; preds = %12
  %19 = tail call ptr @getSizes(ptr noundef %0, double %2, double %3, ptr noundef null, ptr noundef null) #12
  br label %20

20:                                               ; preds = %4, %16, %18
  %.0 = phi ptr [ %17, %16 ], [ %19, %18 ], [ null, %4 ]
  %21 = load i16, ptr @Ndim, align 2, !tbaa !32
  %22 = zext i16 %21 to i32
  %23 = call i32 @agnnodes(ptr noundef %0) #12
  %24 = mul nsw i32 %23, %22
  %25 = sext i32 %24 to i64
  %mul.ov.i.i = icmp slt i32 %24, 0
  br i1 %mul.ov.i.i, label %26, label %29

26:                                               ; preds = %20
  %27 = load ptr, ptr @stderr, align 8, !tbaa !68
  %28 = call i32 (ptr, ptr, ...) @fprintf(ptr noundef %27, ptr noundef nonnull @.str.28, i64 noundef range(i64 -2147483648, 2147483648) %25, i64 noundef 8) #14
  call fastcc void @graphviz_exit() #15
  unreachable

29:                                               ; preds = %20
  %30 = icmp ne i32 %24, 0
  %31 = call noalias ptr @calloc(i64 noundef range(i64 -2147483648, 2147483648) %25, i64 noundef 8) #16
  %32 = icmp eq ptr %31, null
  %or.cond3.i.i = and i1 %30, %32
  br i1 %or.cond3.i.i, label %33, label %gv_calloc.exit.i

33:                                               ; preds = %29
  %34 = load ptr, ptr @stderr, align 8, !tbaa !68
  %35 = shl nuw nsw i64 %25, 3
  %36 = call i32 (ptr, ptr, ...) @fprintf(ptr noundef %34, ptr noundef nonnull @.str.29, i64 noundef %35) #14
  call fastcc void @graphviz_exit() #15
  unreachable

gv_calloc.exit.i:                                 ; preds = %29
  %37 = call ptr @agattr(ptr noundef %0, i32 noundef 1, ptr noundef nonnull @.str.27, ptr noundef null) #12
  %38 = icmp eq ptr %37, null
  br i1 %38, label %getPos.exit, label %39

39:                                               ; preds = %gv_calloc.exit.i
  %40 = call ptr @agfstnode(ptr noundef %0) #12
  %.not22.i = icmp eq ptr %40, null
  br i1 %.not22.i, label %getPos.exit, label %.lr.ph24.i

.lr.ph24.i:                                       ; preds = %39, %.loopexit.i
  %.01823.i = phi ptr [ %56, %.loopexit.i ], [ %40, %39 ]
  %41 = getelementptr inbounds nuw i8, ptr %.01823.i, i64 16
  %42 = load ptr, ptr %41, align 8, !tbaa !3
  %43 = getelementptr inbounds nuw i8, ptr %42, i64 164
  %44 = load i32, ptr %43, align 4, !tbaa !70
  %45 = getelementptr inbounds nuw i8, ptr %42, i64 163
  %46 = load i8, ptr %45, align 1, !tbaa !77
  %.not19.i = icmp eq i8 %46, 0
  br i1 %.not19.i, label %.loopexit.i, label %.preheader.i

.preheader.i:                                     ; preds = %.lr.ph24.i
  %47 = load i16, ptr @Ndim, align 2, !tbaa !32
  %.not25.i = icmp eq i16 %47, 0
  br i1 %.not25.i, label %.loopexit.i, label %.lr.ph.i

.lr.ph.i:                                         ; preds = %.preheader.i
  %48 = zext i16 %47 to i32
  %49 = getelementptr inbounds nuw i8, ptr %42, i64 176
  %50 = load ptr, ptr %49, align 8, !tbaa !78
  %51 = mul nsw i32 %44, %48
  %52 = sext i32 %51 to i64
  %53 = shl nsw i64 %52, 3
  %scevgep.i = getelementptr i8, ptr %31, i64 %53
  %54 = zext i16 %47 to i64
  %55 = shl nuw nsw i64 %54, 3
  call void @llvm.memcpy.p0.p0.i64(ptr align 8 %scevgep.i, ptr align 8 %50, i64 %55, i1 false), !tbaa !56
  br label %.loopexit.i

.loopexit.i:                                      ; preds = %.lr.ph.i, %.preheader.i, %.lr.ph24.i
  %56 = call ptr @agnxtnode(ptr noundef %0, ptr noundef nonnull %.01823.i) #12
  %.not.i = icmp eq ptr %56, null
  br i1 %.not.i, label %getPos.exit, label %.lr.ph24.i, !llvm.loop !79

getPos.exit:                                      ; preds = %.loopexit.i, %gv_calloc.exit.i, %39
  %57 = load i16, ptr @Ndim, align 2, !tbaa !32
  %58 = zext i16 %57 to i32
  %59 = load i32, ptr %6, align 4, !tbaa !66
  %60 = load ptr, ptr %7, align 8, !tbaa !67
  call void @multilevel_spring_electrical_embedding(i32 noundef %58, ptr noundef %8, ptr noundef %1, ptr noundef %.0, ptr noundef %31, i32 noundef %59, ptr noundef %60, ptr noundef nonnull %5) #12
  %61 = call ptr @agfstnode(ptr noundef %0) #12
  %.not29 = icmp eq ptr %61, null
  br i1 %.not29, label %._crit_edge32, label %.lr.ph31

.lr.ph31:                                         ; preds = %getPos.exit, %._crit_edge
  %.02630 = phi ptr [ %77, %._crit_edge ], [ %61, %getPos.exit ]
  %62 = load i16, ptr @Ndim, align 2, !tbaa !32
  %63 = zext i16 %62 to i32
  %64 = getelementptr inbounds nuw i8, ptr %.02630, i64 16
  %65 = load ptr, ptr %64, align 8, !tbaa !3
  %66 = getelementptr inbounds nuw i8, ptr %65, i64 164
  %67 = load i32, ptr %66, align 4, !tbaa !70
  %68 = mul nsw i32 %67, %63
  %69 = sext i32 %68 to i64
  %70 = getelementptr inbounds double, ptr %31, i64 %69
  %.not33 = icmp eq i16 %62, 0
  br i1 %.not33, label %._crit_edge, label %.lr.ph

.lr.ph:                                           ; preds = %.lr.ph31
  %71 = getelementptr inbounds nuw i8, ptr %65, i64 176
  %72 = load ptr, ptr %71, align 8, !tbaa !78
  %wide.trip.count = zext i16 %62 to i64
  br label %73

73:                                               ; preds = %.lr.ph, %73
  %indvars.iv = phi i64 [ 0, %.lr.ph ], [ %indvars.iv.next, %73 ]
  %74 = getelementptr inbounds nuw double, ptr %70, i64 %indvars.iv
  %75 = load double, ptr %74, align 8, !tbaa !56
  %76 = getelementptr inbounds nuw double, ptr %72, i64 %indvars.iv
  store double %75, ptr %76, align 8, !tbaa !56
  %indvars.iv.next = add nuw nsw i64 %indvars.iv, 1
  %exitcond.not = icmp eq i64 %indvars.iv.next, %wide.trip.count
  br i1 %exitcond.not, label %._crit_edge, label %73, !llvm.loop !80

._crit_edge:                                      ; preds = %73, %.lr.ph31
  %77 = call ptr @agnxtnode(ptr noundef %0, ptr noundef nonnull %.02630) #12
  %.not = icmp eq ptr %77, null
  br i1 %.not, label %._crit_edge32, label %.lr.ph31, !llvm.loop !81

._crit_edge32:                                    ; preds = %._crit_edge, %getPos.exit
  call void @free(ptr noundef %.0) #12
  call void @free(ptr noundef %31) #12
  call void @SparseMatrix_delete(ptr noundef %8) #12
  %78 = load ptr, ptr %7, align 8, !tbaa !67
  call void @free(ptr noundef %78) #12
  call void @llvm.lifetime.end.p0(i64 8, ptr nonnull %7) #12
  call void @llvm.lifetime.end.p0(i64 4, ptr nonnull %6) #12
  call void @llvm.lifetime.end.p0(i64 4, ptr nonnull %5) #12
  ret void
}